; Function Attrs: mustprogress nounwind uwtable
define internal fastcc noundef zeroext i1 @_ZN4node8profilerL15EnsureDirectoryERKNSt7__cxx1112basic_stringIcSt11char_traitsIcESaIcEEEPKc(ptr noundef nonnull align 8 dereferenceable(32) %directory, ptr noundef %type) unnamed_addr #3 {
entry:
  %req_wrap_sync = alloca %"class.node::fs::FSReqWrapSync", align 8
  %err_buf = alloca [128 x i8], align 16
  %syscall_p.i = getelementptr inbounds i8, ptr %req_wrap_sync, i64 440
  %continuation_data_.i = getelementptr inbounds i8, ptr %req_wrap_sync, i64 464
  call void @llvm.memset.p0.i64(ptr noundef nonnull align 8 dereferenceable(32) %syscall_p.i, i8 0, i64 32, i1 false)
  %call = call noundef i32 @_ZN4node2fs10MKDirpSyncEP9uv_loop_sP7uv_fs_sRKNSt7__cxx1112basic_stringIcSt11char_traitsIcESaIcEEEiPFvS4_E(ptr noundef null, ptr noundef nonnull %req_wrap_sync, ptr noundef nonnull align 8 dereferenceable(32) %directory, i32 noundef 511, ptr noundef null) #22
  %cmp = icmp sgt i32 %call, -1
  %cmp1 = icmp eq i32 %call, -17
  %or.cond.not = or i1 %cmp, %cmp1
  br i1 %or.cond.not, label %cleanup, label %if.then

if.then:                                          ; preds = %entry
  %call2 = call ptr @uv_err_name_r(i32 noundef %call, ptr noundef nonnull %err_buf, i64 noundef 128) #22
  %0 = load ptr, ptr @stderr, align 8
  %call4 = call noundef ptr @_ZNKSt7__cxx1112basic_stringIcSt11char_traitsIcESaIcEE5c_strEv(ptr noundef nonnull align 8 dereferenceable(32) %directory) #22
  %call5 = call i32 (ptr, ptr, ...) @fprintf(ptr noundef %0, ptr noundef nonnull @.str.49, ptr noundef nonnull %err_buf, ptr noundef %type, ptr noundef %call4) #23
  br label %cleanup

cleanup:                                          ; preds = %entry, %if.then
  call void @uv_fs_req_cleanup(ptr noundef nonnull %req_wrap_sync) #22
  %1 = load ptr, ptr %continuation_data_.i, align 8
  %cmp.not.i.i = icmp eq ptr %1, null
  br i1 %cmp.not.i.i, label %_ZN4node2fs13FSReqWrapSyncD2Ev.exit, label %_ZNKSt14default_deleteIN4node2fs18FSContinuationDataEEclEPS2_.exit.i.i

_ZNKSt14default_deleteIN4node2fs18FSContinuationDataEEclEPS2_.exit.i.i: ; preds = %cleanup
  %vtable.i.i.i = load ptr, ptr %1, align 8
  %vfn.i.i.i = getelementptr inbounds i8, ptr %vtable.i.i.i, i64 8
  %2 = load ptr, ptr %vfn.i.i.i, align 8
  call void %2(ptr noundef nonnull align 8 dereferenceable(88) %1) #22
  br label %_ZN4node2fs13FSReqWrapSyncD2Ev.exit

_ZN4node2fs13FSReqWrapSyncD2Ev.exit:              ; preds = %cleanup, %_ZNKSt14default_deleteIN4node2fs18FSContinuationDataEEclEPS2_.exit.i.i
  ret i1 %or.cond.not
}